target datalayout = "e-m:e-p270:32:32-p271:32:32-p272:64:64-i64:64-i128:128-f80:128-n8:16:32:64-S128"
target triple = "x86_64-unknown-linux-gnu"

%"struct.std::atomic.1" = type { %"struct.std::__atomic_base.0" }
%"struct.std::__atomic_base.0" = type { ptr }
%"class.absl::cord_internal::CordzInfo" = type <{ %"class.absl::cord_internal::CordzHandle", ptr, %"struct.std::atomic.1", %"struct.std::atomic.1", %"class.absl::Mutex", ptr, [64 x ptr], [64 x ptr], i64, i64, i32, i32, %"class.absl::cord_internal::CordzUpdateTracker", %"class.absl::Time", [4 x i8] }>
%"class.absl::cord_internal::CordzHandle" = type { ptr, i8, ptr, ptr }
%"class.absl::Mutex" = type { %"struct.std::atomic.2" }
%"struct.std::atomic.2" = type { %"struct.std::__atomic_base.3" }
%"struct.std::__atomic_base.3" = type { i64 }
%"class.absl::cord_internal::CordzUpdateTracker" = type { [25 x %"class.absl::cord_internal::CordzUpdateTracker::Counter"] }
%"class.absl::cord_internal::CordzUpdateTracker::Counter" = type { %"struct.std::atomic.2" }
%"class.absl::Time" = type { %"class.absl::Duration" }
%"class.absl::Duration" = type { %"class.absl::Duration::HiRep", i32 }
%"class.absl::Duration::HiRep" = type { i32, i32 }

; Function Attrs: mustprogress uwtable
define dso_local void @_ZN4absl13cord_internal9CordzInfo6UnlockEv(ptr noundef nonnull align 8 dereferenceable(1332) %this) #1 align 2 {
entry:
  %this.addr = alloca ptr, align 8
  %tracked = alloca i8, align 1
  store ptr %this, ptr %this.addr, align 8
  %this1 = load ptr, ptr %this.addr, align 8
  %rep_ = getelementptr inbounds %"class.absl::cord_internal::CordzInfo", ptr %this1, i32 0, i32 5
  %0 = load ptr, ptr %rep_, align 8
  %cmp = icmp ne ptr %0, null
  %frombool = zext i1 %cmp to i8
  store i8 %frombool, ptr %tracked, align 1
  %mutex_ = getelementptr inbounds %"class.absl::cord_internal::CordzInfo", ptr %this1, i32 0, i32 4
  call void @_ZN4absl5Mutex6UnlockEv(ptr noundef nonnull align 8 dereferenceable(8) %mutex_)
  %1 = load i8, ptr %tracked, align 1
  %tobool = trunc i8 %1 to i1
  br i1 %tobool, label %if.end, label %if.then

if.then:                                          ; preds = %entry
  call void @_ZN4absl13cord_internal9CordzInfo7UntrackEv(ptr noundef nonnull align 8 dereferenceable(1332) %this1)
  br label %if.end

if.end:                                           ; preds = %if.then, %entry
  ret void
}