; Function Attrs: mustprogress uwtable
define dso_local void @_ZN4absl13cord_internal9CordzInfo6UnlockEv(ptr noundef nonnull align 8 dereferenceable(1332) %this) local_unnamed_addr #2 align 2 {
entry:
  %rep_ = getelementptr inbounds i8, ptr %this, i64 64
  %0 = load ptr, ptr %rep_, align 8
  %cmp.not = icmp eq ptr %0, null
  %mutex_ = getelementptr inbounds i8, ptr %this, i64 56
  tail call void @_ZN4absl5Mutex6UnlockEv(ptr noundef nonnull align 8 dereferenceable(8) %mutex_)
  br i1 %cmp.not, label %if.then, label %if.end

if.then:                                          ; preds = %entry
  tail call void @_ZN4absl13cord_internal9CordzInfo7UntrackEv(ptr noundef nonnull align 8 dereferenceable(1332) %this)
  br label %if.end

if.end:                                           ; preds = %if.then, %entry
  ret void
}